target datalayout = "e-m:e-p270:32:32-p271:32:32-p272:64:64-i64:64-i128:128-f80:128-n8:16:32:64-S128"
target triple = "x86_64-pc-linux-gnu"

%struct.OutputPluginCallbacks = type { ptr, ptr, ptr, ptr, ptr, ptr, ptr, ptr, ptr, ptr, ptr, ptr, ptr, ptr, ptr, ptr, ptr, ptr, ptr, ptr, ptr }
%struct.LogicalDecodingContext = type { ptr, ptr, ptr, ptr, ptr, i8, %struct.OutputPluginCallbacks, %struct.OutputPluginOptions, ptr, ptr, ptr, ptr, ptr, ptr, ptr, i8, i8, i8, i8, i8, i64, i32, i8, i8 }
%struct.OutputPluginOptions = type { i32, i8 }
%struct.PGOutputData = type { ptr, ptr, ptr, i8, i32, ptr, ptr, i8, i8, i8, i8, i8 }
%struct.ReorderBufferTXN = type { i32, i32, i32, ptr, i64, i64, i64, ptr, i64, i16, i64, %union.anon, ptr, i64, %struct.dlist_node, ptr, i32, i64, i64, %struct.dlist_head, %struct.dlist_head, i64, ptr, ptr, %struct.dlist_head, i32, i32, ptr, %struct.dlist_node, %struct.dlist_node, %struct.pairingheap_node, i64, i64, ptr }
%union.anon = type { i64 }
%struct.dlist_head = type { %struct.dlist_node }
%struct.dlist_node = type { ptr, ptr }
%struct.pairingheap_node = type { ptr, ptr, ptr }

; Function Attrs: nounwind uwtable
define internal void @send_repl_origin(ptr noundef %0, i16 noundef zeroext %1, i64 noundef %2, i1 noundef zeroext %3) #0 {
  %5 = alloca ptr, align 8
  %6 = alloca i16, align 2
  %7 = alloca i64, align 8
  %8 = alloca i8, align 1
  %9 = alloca ptr, align 8
  store ptr %0, ptr %5, align 8
  store i16 %1, ptr %6, align 2
  store i64 %2, ptr %7, align 8
  %10 = zext i1 %3 to i8
  store i8 %10, ptr %8, align 1
  %11 = load i8, ptr %8, align 1, !range !3, !noundef !4
  %12 = trunc i8 %11 to i1
  br i1 %12, label %13, label %25

13:                                               ; preds = %4
  call void @llvm.lifetime.start.p0(i64 8, ptr %9) #10
  %14 = load i16, ptr %6, align 2
  %15 = call zeroext i1 @replorigin_by_oid(i16 noundef zeroext %14, i1 noundef zeroext true, ptr noundef %9)
  br i1 %15, label %16, label %24

16:                                               ; preds = %13
  %17 = load ptr, ptr %5, align 8
  call void @OutputPluginWrite(ptr noundef %17, i1 noundef zeroext false)
  %18 = load ptr, ptr %5, align 8
  call void @OutputPluginPrepareWrite(ptr noundef %18, i1 noundef zeroext true)
  %19 = load ptr, ptr %5, align 8
  %20 = getelementptr inbounds nuw %struct.LogicalDecodingContext, ptr %19, i32 0, i32 12
  %21 = load ptr, ptr %20, align 8
  %22 = load ptr, ptr %9, align 8
  %23 = load i64, ptr %7, align 8
  call void @logicalrep_write_origin(ptr noundef %21, ptr noundef %22, i64 noundef %23)
  br label %24

24:                                               ; preds = %16, %13
  call void @llvm.lifetime.end.p0(i64 8, ptr %9) #10
  br label %25

25:                                               ; preds = %24, %4
  ret void
}

; Function Attrs: nounwind uwtable
define internal void @pgoutput_stream_start(ptr noundef %0, ptr noundef %1) #0 {
  %3 = alloca ptr, align 8
  %4 = alloca ptr, align 8
  %5 = alloca ptr, align 8
  %6 = alloca i8, align 1
  store ptr %0, ptr %3, align 8
  store ptr %1, ptr %4, align 8
  call void @llvm.lifetime.start.p0(i64 8, ptr %5) #10
  %7 = load ptr, ptr %3, align 8
  %8 = getelementptr inbounds nuw %struct.LogicalDecodingContext, ptr %7, i32 0, i32 13
  %9 = load ptr, ptr %8, align 8
  store ptr %9, ptr %5, align 8
  call void @llvm.lifetime.start.p0(i64 1, ptr %6) #10
  %10 = load ptr, ptr %4, align 8
  %11 = getelementptr inbounds nuw %struct.ReorderBufferTXN, ptr %10, i32 0, i32 9
  %12 = load i16, ptr %11, align 8
  %13 = zext i16 %12 to i32
  %14 = icmp ne i32 %13, 0
  %15 = zext i1 %14 to i8
  store i8 %15, ptr %6, align 1
  %16 = load ptr, ptr %4, align 8
  %17 = getelementptr inbounds nuw %struct.ReorderBufferTXN, ptr %16, i32 0, i32 0
  %18 = load i32, ptr %17, align 8
  %19 = and i32 %18, 16
  %20 = icmp ne i32 %19, 0
  br i1 %20, label %21, label %22

21:                                               ; preds = %2
  store i8 0, ptr %6, align 1
  br label %22

22:                                               ; preds = %21, %2
  %23 = load ptr, ptr %3, align 8
  %24 = load i8, ptr %6, align 1, !range !3, !noundef !4
  %25 = trunc i8 %24 to i1
  %26 = xor i1 %25, true
  call void @OutputPluginPrepareWrite(ptr noundef %23, i1 noundef zeroext %26)
  %27 = load ptr, ptr %3, align 8
  %28 = getelementptr inbounds nuw %struct.LogicalDecodingContext, ptr %27, i32 0, i32 12
  %29 = load ptr, ptr %28, align 8
  %30 = load ptr, ptr %4, align 8
  %31 = getelementptr inbounds nuw %struct.ReorderBufferTXN, ptr %30, i32 0, i32 1
  %32 = load i32, ptr %31, align 4
  %33 = load ptr, ptr %4, align 8
  %34 = getelementptr inbounds nuw %struct.ReorderBufferTXN, ptr %33, i32 0, i32 0
  %35 = load i32, ptr %34, align 8
  %36 = and i32 %35, 16
  %37 = icmp ne i32 %36, 0
  %38 = xor i1 %37, true
  call void @logicalrep_write_stream_start(ptr noundef %29, i32 noundef %32, i1 noundef zeroext %38)
  %39 = load ptr, ptr %3, align 8
  %40 = load ptr, ptr %4, align 8
  %41 = getelementptr inbounds nuw %struct.ReorderBufferTXN, ptr %40, i32 0, i32 9
  %42 = load i16, ptr %41, align 8
  %43 = load i8, ptr %6, align 1, !range !3, !noundef !4
  %44 = trunc i8 %43 to i1
  call void @send_repl_origin(ptr noundef %39, i16 noundef zeroext %42, i64 noundef 0, i1 noundef zeroext %44)
  %45 = load ptr, ptr %3, align 8
  call void @OutputPluginWrite(ptr noundef %45, i1 noundef zeroext true)
  %46 = load ptr, ptr %5, align 8
  %47 = getelementptr inbounds nuw %struct.PGOutputData, ptr %46, i32 0, i32 3
  store i8 1, ptr %47, align 8
  call void @llvm.lifetime.end.p0(i64 1, ptr %6) #10
  call void @llvm.lifetime.end.p0(i64 8, ptr %5) #10
  ret void
}