; Function Attrs: nounwind uwtable
define internal void @pgoutput_stream_start(ptr noundef %0, ptr noundef readonly captures(none) %1) #2 {
  %3 = alloca ptr, align 8
  %4 = getelementptr inbounds nuw i8, ptr %0, i64 264
  %5 = load ptr, ptr %4, align 8
  %6 = getelementptr inbounds nuw i8, ptr %1, i64 64
  %7 = load i16, ptr %6, align 8
  %8 = icmp eq i16 %7, 0
  %9 = load i32, ptr %1, align 8
  %10 = and i32 %9, 16
  %.not = icmp ne i32 %10, 0
  %narrow.not = select i1 %.not, i1 true, i1 %8
  tail call void @OutputPluginPrepareWrite(ptr noundef %0, i1 noundef zeroext %narrow.not) #13
  %11 = getelementptr inbounds nuw i8, ptr %0, i64 256
  %12 = load ptr, ptr %11, align 8
  %13 = getelementptr inbounds nuw i8, ptr %1, i64 4
  %14 = load i32, ptr %13, align 4
  %15 = load i32, ptr %1, align 8
  %16 = and i32 %15, 16
  %.not12 = icmp eq i32 %16, 0
  tail call void @logicalrep_write_stream_start(ptr noundef %12, i32 noundef %14, i1 noundef zeroext %.not12) #13
  br i1 %narrow.not, label %send_repl_origin.exit, label %17

17:                                               ; preds = %2
  %18 = load i16, ptr %6, align 8
  call void @llvm.lifetime.start.p0(i64 8, ptr nonnull %3) #13
  %19 = call zeroext i1 @replorigin_by_oid(i16 noundef zeroext %18, i1 noundef zeroext true, ptr noundef nonnull %3) #13
  br i1 %19, label %20, label %23

20:                                               ; preds = %17
  call void @OutputPluginWrite(ptr noundef nonnull %0, i1 noundef zeroext false) #13
  call void @OutputPluginPrepareWrite(ptr noundef nonnull %0, i1 noundef zeroext true) #13
  %21 = load ptr, ptr %11, align 8
  %22 = load ptr, ptr %3, align 8
  call void @logicalrep_write_origin(ptr noundef %21, ptr noundef %22, i64 noundef 0) #13
  br label %23

23:                                               ; preds = %20, %17
  call void @llvm.lifetime.end.p0(i64 8, ptr nonnull %3) #13
  br label %send_repl_origin.exit

send_repl_origin.exit:                            ; preds = %2, %23
  call void @OutputPluginWrite(ptr noundef nonnull %0, i1 noundef zeroext true) #13
  %24 = getelementptr inbounds nuw i8, ptr %5, i64 24
  store i8 1, ptr %24, align 8
  ret void
}